; Function Attrs: mustprogress nounwind uwtable
define dso_local void @_ZN13GroupProbElemD2Ev(ptr noundef nonnull align 8 dereferenceable(96) %0) unnamed_addr #4 align 2 personality ptr @__gxx_personality_v0 {
  store ptr getelementptr inbounds ({ [10 x ptr] }, ptr @_ZTV13GroupProbElem, i64 0, i32 0, i64 2), ptr %0, align 8
  %2 = getelementptr inbounds i8, ptr %0, i64 48
  %3 = getelementptr inbounds i8, ptr %0, i64 72
  %4 = load ptr, ptr %3, align 8
  %5 = getelementptr inbounds i8, ptr %0, i64 56
  %.not4 = icmp eq ptr %4, %5
  br i1 %.not4, label %._crit_edge, label %.lr.ph

.lr.ph:                                           ; preds = %1, %13
  %.sroa.01.05 = phi ptr [ %14, %13 ], [ %4, %1 ]
  %6 = getelementptr inbounds i8, ptr %.sroa.01.05, i64 40
  %7 = load ptr, ptr %6, align 8
  %8 = icmp eq ptr %7, null
  br i1 %8, label %13, label %9

9:                                                ; preds = %.lr.ph
  %10 = load ptr, ptr %7, align 8
  %11 = getelementptr inbounds i8, ptr %10, i64 8
  %12 = load ptr, ptr %11, align 8
  tail call void %12(ptr noundef nonnull align 8 dereferenceable(52) %7) #22
  br label %13

13:                                               ; preds = %.lr.ph, %9
  %14 = tail call noundef ptr @_ZSt18_Rb_tree_incrementPSt18_Rb_tree_node_base(ptr noundef nonnull %.sroa.01.05) #24
  %.not = icmp eq ptr %14, %5
  br i1 %.not, label %._crit_edge, label %.lr.ph, !llvm.loop !9

._crit_edge:                                      ; preds = %13, %1
  %15 = getelementptr inbounds i8, ptr %0, i64 64
  %16 = load ptr, ptr %15, align 8
  invoke void @_ZNSt8_Rb_treeI8ProbNameSt4pairIKS0_P14SingleProbElemESt10_Select1stIS5_ESt4lessIS0_ESaIS5_EE8_M_eraseEPSt13_Rb_tree_nodeIS5_E(ptr noundef nonnull align 8 dereferenceable(48) %2, ptr noundef %16)
          to label %_ZNSt3mapI8ProbNameP14SingleProbElemSt4lessIS0_ESaISt4pairIKS0_S2_EEE5clearEv.exit unwind label %17

17:                                               ; preds = %._crit_edge
  %18 = landingpad { ptr, i32 }
          catch ptr null
  %19 = extractvalue { ptr, i32 } %18, 0
  tail call void @__clang_call_terminate(ptr %19) #26
  unreachable

_ZNSt3mapI8ProbNameP14SingleProbElemSt4lessIS0_ESaISt4pairIKS0_S2_EEE5clearEv.exit: ; preds = %._crit_edge
  store ptr null, ptr %15, align 8
  store ptr %5, ptr %3, align 8
  %20 = getelementptr inbounds i8, ptr %0, i64 80
  store ptr %5, ptr %20, align 8
  %21 = getelementptr inbounds i8, ptr %0, i64 88
  store i64 0, ptr %21, align 8
  invoke void @_ZNSt8_Rb_treeI8ProbNameSt4pairIKS0_P14SingleProbElemESt10_Select1stIS5_ESt4lessIS0_ESaIS5_EE8_M_eraseEPSt13_Rb_tree_nodeIS5_E(ptr noundef nonnull align 8 dereferenceable(48) %2, ptr noundef null)
          to label %_ZNSt3mapI8ProbNameP14SingleProbElemSt4lessIS0_ESaISt4pairIKS0_S2_EEED2Ev.exit unwind label %22

22:                                               ; preds = %_ZNSt3mapI8ProbNameP14SingleProbElemSt4lessIS0_ESaISt4pairIKS0_S2_EEE5clearEv.exit
  %23 = landingpad { ptr, i32 }
          catch ptr null
  %24 = extractvalue { ptr, i32 } %23, 0
  tail call void @__clang_call_terminate(ptr %24) #26
  unreachable

_ZNSt3mapI8ProbNameP14SingleProbElemSt4lessIS0_ESaISt4pairIKS0_S2_EEED2Ev.exit: ; preds = %_ZNSt3mapI8ProbNameP14SingleProbElemSt4lessIS0_ESaISt4pairIKS0_S2_EEE5clearEv.exit
  %25 = getelementptr inbounds i8, ptr %0, i64 16
  tail call void @_ZNSt7__cxx1112basic_stringIcSt11char_traitsIcESaIcEED1Ev(ptr noundef nonnull align 8 dereferenceable(32) %25) #22
  ret void
}